target datalayout = "e-m:e-p270:32:32-p271:32:32-p272:64:64-i64:64-i128:128-f80:128-n8:16:32:64-S128"
target triple = "x86_64-pc-linux-gnu"

@.str.59 = private unnamed_addr constant [13 x i8] c"H5T_SGN_NONE\00", align 1
@.str.60 = private unnamed_addr constant [10 x i8] c"H5T_SGN_2\00", align 1
@.str.61 = private unnamed_addr constant [14 x i8] c"H5T_SGN_ERROR\00", align 1
@.str.62 = private unnamed_addr constant [9 x i8] c"H5T_NSGN\00", align 1
@.str.63 = private unnamed_addr constant [19 x i8] c"unknown sign value\00", align 1

; Function Attrs: nounwind willreturn memory(none) uwtable
define ptr @get_sign(i32 noundef %0) #5 {
  %2 = alloca ptr, align 8
  %3 = alloca i32, align 4
  store i32 %0, ptr %3, align 4, !tbaa !3
  %4 = load i32, ptr %3, align 4, !tbaa !3
  switch i32 %4, label %9 [
    i32 0, label %5
    i32 1, label %6
    i32 -1, label %7
    i32 2, label %8
  ]

5:                                                ; preds = %1
  store ptr @.str.59, ptr %2, align 8
  br label %10

6:                                                ; preds = %1
  store ptr @.str.60, ptr %2, align 8
  br label %10

7:                                                ; preds = %1
  store ptr @.str.61, ptr %2, align 8
  br label %10

8:                                                ; preds = %1
  store ptr @.str.62, ptr %2, align 8
  br label %10

9:                                                ; preds = %1
  store ptr @.str.63, ptr %2, align 8
  br label %10

10:                                               ; preds = %9, %8, %7, %6, %5
  %11 = load ptr, ptr %2, align 8
  ret ptr %11
}